target datalayout = "e-m:e-p270:32:32-p271:32:32-p272:64:64-i64:64-i128:128-f80:128-n8:16:32:64-S128"
target triple = "x86_64-pc-linux-gnu"

@had_conf_error = internal global i8 0, align 1
@.str.176 = private unnamed_addr constant [27 x i8] c"<jemalloc>: %s: %.*s:%.*s\0A\00", align 1
@.str.177 = private unnamed_addr constant [14 x i8] c"experimental_\00", align 1

; Function Attrs: nounwind uwtable
define internal void @malloc_conf_error(ptr noundef %0, ptr noundef %1, i64 noundef %2, ptr noundef %3, i64 noundef %4) #0 {
  %6 = alloca ptr, align 8
  %7 = alloca ptr, align 8
  %8 = alloca i64, align 8
  %9 = alloca ptr, align 8
  %10 = alloca i64, align 8
  %11 = alloca ptr, align 8
  %12 = alloca i32, align 4
  store ptr %0, ptr %6, align 8, !tbaa !134
  store ptr %1, ptr %7, align 8, !tbaa !134
  store i64 %2, ptr %8, align 8, !tbaa !8
  store ptr %3, ptr %9, align 8, !tbaa !134
  store i64 %4, ptr %10, align 8, !tbaa !8
  %13 = load ptr, ptr %6, align 8, !tbaa !134
  %14 = load i64, ptr %8, align 8, !tbaa !8
  %15 = trunc i64 %14 to i32
  %16 = load ptr, ptr %7, align 8, !tbaa !134
  %17 = load i64, ptr %10, align 8, !tbaa !8
  %18 = trunc i64 %17 to i32
  %19 = load ptr, ptr %9, align 8, !tbaa !134
  call void (ptr, ...) @je_malloc_printf(ptr noundef @.str.176, ptr noundef %13, i32 noundef %15, ptr noundef %16, i32 noundef %18, ptr noundef %19)
  call void @llvm.lifetime.start.p0(i64 8, ptr %11) #20
  store ptr @.str.177, ptr %11, align 8, !tbaa !134
  %20 = load ptr, ptr %7, align 8, !tbaa !134
  %21 = load ptr, ptr %11, align 8, !tbaa !134
  %22 = load ptr, ptr %11, align 8, !tbaa !134
  %23 = call i64 @strlen(ptr noundef %22) #24
  %24 = call i32 @strncmp(ptr noundef %20, ptr noundef %21, i64 noundef %23) #24
  %25 = icmp eq i32 %24, 0
  br i1 %25, label %26, label %27

26:                                               ; preds = %5
  store i32 1, ptr %12, align 4
  br label %28

27:                                               ; preds = %5
  store i8 1, ptr @had_conf_error, align 1, !tbaa !10
  store i32 0, ptr %12, align 4
  br label %28

28:                                               ; preds = %27, %26
  call void @llvm.lifetime.end.p0(i64 8, ptr %11) #20
  %29 = load i32, ptr %12, align 4
  switch i32 %29, label %31 [
    i32 0, label %30
    i32 1, label %30
  ]

30:                                               ; preds = %28, %28
  ret void

31:                                               ; preds = %28
  unreachable
}