; Function Attrs: nounwind uwtable
define internal fastcc void @malloc_conf_error(ptr noundef %0, ptr noundef %1, i64 noundef %2, ptr noundef %3, i64 noundef %4) unnamed_addr #2 {
  %6 = trunc i64 %2 to i32
  %7 = trunc i64 %4 to i32
  tail call void (ptr, ...) @je_malloc_printf(ptr noundef nonnull @.str.176, ptr noundef %0, i32 noundef %6, ptr noundef %1, i32 noundef %7, ptr noundef %3) #20
  %8 = tail call i32 @strncmp(ptr noundef nonnull dereferenceable(1) %1, ptr noundef nonnull dereferenceable(14) @.str.177, i64 noundef 13) #25
  %9 = icmp eq i32 %8, 0
  br i1 %9, label %11, label %10

10:                                               ; preds = %5
  store i1 true, ptr @had_conf_error, align 1
  br label %11

11:                                               ; preds = %5, %10
  ret void
}